; ModuleID = '58/146.c'
source_filename = "58/146.c"
target datalayout = "e-m:e-p270:32:32-p271:32:32-p272:64:64-i64:64-f80:128-n8:16:32:64-S128"
target triple = "x86_64-pc-linux-gnu"

@.str = private unnamed_addr constant [3 x i8] c"%d\00", align 1
@.str.1 = private unnamed_addr constant [4 x i8] c"%d\0A\00", align 1

; Function Attrs: noinline nounwind uwtable
define dso_local i32 @main() #0 {
  %1 = alloca i32, align 4
  %2 = alloca i32, align 4
  %3 = alloca i32, align 4
  %4 = alloca [81 x i8], align 16
  %5 = alloca i32, align 4
  %6 = alloca i32, align 4
  store i32 0, i32* %1, align 4
  %7 = call i32 (i8*, ...) @__isoc99_scanf(i8* getelementptr inbounds ([3 x i8], [3 x i8]* @.str, i64 0, i64 0), i32* %2)
  %8 = call i32 @getchar()
  store i32 0, i32* %5, align 4
  br label %9

9:                                                ; preds = %103, %0
  %10 = load i32, i32* %5, align 4
  %11 = load i32, i32* %2, align 4
  %12 = icmp slt i32 %10, %11
  br i1 %12, label %13, label %106

13:                                               ; preds = %9
  store i32 1, i32* %3, align 4
  %14 = getelementptr inbounds [81 x i8], [81 x i8]* %4, i64 0, i64 0
  %15 = call i32 (i8*, ...) bitcast (i32 (...)* @gets to i32 (i8*, ...)*)(i8* %14)
  %16 = getelementptr inbounds [81 x i8], [81 x i8]* %4, i64 0, i64 0
  %17 = load i8, i8* %16, align 16
  %18 = sext i8 %17 to i32
  %19 = icmp sle i32 %18, 57
  br i1 %19, label %20, label %29

20:                                               ; preds = %13
  %21 = getelementptr inbounds [81 x i8], [81 x i8]* %4, i64 0, i64 0
  %22 = load i8, i8* %21, align 16
  %23 = sext i8 %22 to i32
  %24 = icmp sge i32 %23, 48
  br i1 %24, label %25, label %29

25:                                               ; preds = %20
  %26 = load i32, i32* %3, align 4
  %27 = sub nsw i32 %26, 1
  %28 = call i32 (i8*, ...) @printf(i8* getelementptr inbounds ([4 x i8], [4 x i8]* @.str.1, i64 0, i64 0), i32 %27)
  br label %103

29:                                               ; preds = %20, %13
  store i32 0, i32* %6, align 4
  br label %30

30:                                               ; preds = %93, %29
  %31 = load i32, i32* %6, align 4
  %32 = sext i32 %31 to i64
  %33 = getelementptr inbounds [81 x i8], [81 x i8]* %4, i64 0, i64 %32
  %34 = load i8, i8* %33, align 1
  %35 = sext i8 %34 to i32
  %36 = icmp ne i32 %35, 0
  br i1 %36, label %37, label %96

37:                                               ; preds = %30
  %38 = load i32, i32* %6, align 4
  %39 = sext i32 %38 to i64
  %40 = getelementptr inbounds [81 x i8], [81 x i8]* %4, i64 0, i64 %39
  %41 = load i8, i8* %40, align 1
  %42 = sext i8 %41 to i32
  %43 = icmp sle i32 %42, 122
  br i1 %43, label %44, label %51

44:                                               ; preds = %37
  %45 = load i32, i32* %6, align 4
  %46 = sext i32 %45 to i64
  %47 = getelementptr inbounds [81 x i8], [81 x i8]* %4, i64 0, i64 %46
  %48 = load i8, i8* %47, align 1
  %49 = sext i8 %48 to i32
  %50 = icmp sge i32 %49, 97
  br i1 %50, label %86, label %51

51:                                               ; preds = %44, %37
  %52 = load i32, i32* %6, align 4
  %53 = sext i32 %52 to i64
  %54 = getelementptr inbounds [81 x i8], [81 x i8]* %4, i64 0, i64 %53
  %55 = load i8, i8* %54, align 1
  %56 = sext i8 %55 to i32
  %57 = icmp sle i32 %56, 90
  br i1 %57, label %58, label %65

58:                                               ; preds = %51
  %59 = load i32, i32* %6, align 4
  %60 = sext i32 %59 to i64
  %61 = getelementptr inbounds [81 x i8], [81 x i8]* %4, i64 0, i64 %60
  %62 = load i8, i8* %61, align 1
  %63 = sext i8 %62 to i32
  %64 = icmp sge i32 %63, 65
  br i1 %64, label %86, label %65

65:                                               ; preds = %58, %51
  %66 = load i32, i32* %6, align 4
  %67 = sext i32 %66 to i64
  %68 = getelementptr inbounds [81 x i8], [81 x i8]* %4, i64 0, i64 %67
  %69 = load i8, i8* %68, align 1
  %70 = sext i8 %69 to i32
  %71 = icmp eq i32 %70, 95
  br i1 %71, label %86, label %72

72:                                               ; preds = %65
  %73 = load i32, i32* %6, align 4
  %74 = sext i32 %73 to i64
  %75 = getelementptr inbounds [81 x i8], [81 x i8]* %4, i64 0, i64 %74
  %76 = load i8, i8* %75, align 1
  %77 = sext i8 %76 to i32
  %78 = icmp sle i32 %77, 57
  br i1 %78, label %79, label %87

79:                                               ; preds = %72
  %80 = load i32, i32* %6, align 4
  %81 = sext i32 %80 to i64
  %82 = getelementptr inbounds [81 x i8], [81 x i8]* %4, i64 0, i64 %81
  %83 = load i8, i8* %82, align 1
  %84 = sext i8 %83 to i32
  %85 = icmp sge i32 %84, 48
  br i1 %85, label %86, label %87

86:                                               ; preds = %79, %65, %58, %44
  br label %92

87:                                               ; preds = %79, %72
  %88 = load i32, i32* %3, align 4
  %89 = add nsw i32 %88, -1
  store i32 %89, i32* %3, align 4
  %90 = load i32, i32* %3, align 4
  %91 = call i32 (i8*, ...) @printf(i8* getelementptr inbounds ([4 x i8], [4 x i8]* @.str.1, i64 0, i64 0), i32 %90)
  br label %96

92:                                               ; preds = %86
  br label %93

93:                                               ; preds = %92
  %94 = load i32, i32* %6, align 4
  %95 = add nsw i32 %94, 1
  store i32 %95, i32* %6, align 4
  br label %30

96:                                               ; preds = %87, %30
  %97 = load i32, i32* %3, align 4
  %98 = icmp eq i32 %97, 1
  br i1 %98, label %99, label %102

99:                                               ; preds = %96
  %100 = load i32, i32* %3, align 4
  %101 = call i32 (i8*, ...) @printf(i8* getelementptr inbounds ([4 x i8], [4 x i8]* @.str.1, i64 0, i64 0), i32 %100)
  br label %102

102:                                              ; preds = %99, %96
  br label %103

103:                                              ; preds = %102, %25
  %104 = load i32, i32* %5, align 4
  %105 = add nsw i32 %104, 1
  store i32 %105, i32* %5, align 4
  br label %9

106:                                              ; preds = %9
  ret i32 0
}

declare dso_local i32 @__isoc99_scanf(i8*, ...) #1

declare dso_local i32 @getchar() #1

declare dso_local i32 @gets(...) #1

declare dso_local i32 @printf(i8*, ...) #1


!llvm.module.flags = !{!0}
!llvm.ident = !{!1}

!0 = !{i32 1, !"wchar_size", i32 4}
!1 = !{!"clang version 10.0.0-4ubuntu1 "}
